target datalayout = "e-m:e-p270:32:32-p271:32:32-p272:64:64-i64:64-i128:128-f80:128-n8:16:32:64-S128"
target triple = "x86_64-pc-linux-gnu"

%struct.RelationData = type { %struct.RelFileLocator, ptr, i32, i32, i8, i8, i8, i8, i8, i32, i32, i32, i32, ptr, ptr, i32, %struct.LockInfoData, ptr, ptr, ptr, ptr, ptr, i8, ptr, ptr, ptr, ptr, ptr, ptr, i32, ptr, i8, ptr, ptr, i32, i8, i32, ptr, i8, ptr, ptr, ptr, ptr, ptr, ptr, ptr, i32, ptr, ptr, ptr, ptr, ptr, ptr, ptr, ptr, ptr, ptr, ptr, ptr, ptr, ptr, ptr, ptr, ptr, ptr, ptr, i32, i8, ptr }
%struct.RelFileLocator = type { i32, i32, i32 }
%struct.LockInfoData = type { %struct.LockRelId }
%struct.LockRelId = type { i32, i32 }
%struct.FormData_pg_class = type { i32, %struct.nameData, i32, i32, i32, i32, i32, i32, i32, i32, float, i32, i32, i8, i8, i8, i8, i16, i16, i8, i8, i8, i8, i8, i8, i8, i8, i32, i32, i32 }
%struct.nameData = type { [64 x i8] }

@.str.3 = private unnamed_addr constant [9 x i8] c"worker.c\00", align 1
@.str.54 = private unnamed_addr constant [79 x i8] c"user \22%s\22 cannot replicate into relation with row-level security enabled: \22%s\22\00", align 1
@__func__.TargetPrivilegesCheck = private unnamed_addr constant [22 x i8] c"TargetPrivilegesCheck\00", align 1

; Function Attrs: nounwind uwtable
define internal void @TargetPrivilegesCheck(ptr noundef %0, i64 noundef %1) #0 {
  %3 = alloca ptr, align 8
  %4 = alloca i64, align 8
  %5 = alloca i32, align 4
  %6 = alloca i32, align 4
  store ptr %0, ptr %3, align 8
  store i64 %1, ptr %4, align 8
  call void @llvm.lifetime.start.p0(i64 4, ptr %5) #12
  call void @llvm.lifetime.start.p0(i64 4, ptr %6) #12
  %7 = load ptr, ptr %3, align 8
  %8 = getelementptr inbounds nuw %struct.RelationData, ptr %7, i32 0, i32 15
  %9 = load i32, ptr %8, align 8
  store i32 %9, ptr %5, align 4
  %10 = load i32, ptr %5, align 4
  %11 = call i32 @GetUserId()
  %12 = load i64, ptr %4, align 8
  %13 = call i32 @pg_class_aclcheck(i32 noundef %10, i32 noundef %11, i64 noundef %12)
  store i32 %13, ptr %6, align 4
  %14 = load i32, ptr %6, align 4
  %15 = icmp ne i32 %14, 0
  br i1 %15, label %16, label %26

16:                                               ; preds = %2
  %17 = load i32, ptr %6, align 4
  %18 = load ptr, ptr %3, align 8
  %19 = getelementptr inbounds nuw %struct.RelationData, ptr %18, i32 0, i32 13
  %20 = load ptr, ptr %19, align 8
  %21 = getelementptr inbounds nuw %struct.FormData_pg_class, ptr %20, i32 0, i32 16
  %22 = load i8, ptr %21, align 1
  %23 = call i32 @get_relkind_objtype(i8 noundef signext %22)
  %24 = load i32, ptr %5, align 4
  %25 = call ptr @get_rel_name(i32 noundef %24)
  call void @aclcheck_error(i32 noundef %17, i32 noundef %23, ptr noundef %25)
  br label %26

26:                                               ; preds = %16, %2
  %27 = load i32, ptr %5, align 4
  %28 = call i32 @check_enable_rls(i32 noundef %27, i32 noundef 0, i1 noundef zeroext false)
  %29 = icmp eq i32 %28, 2
  br i1 %29, label %30, label %50

30:                                               ; preds = %26
  br label %31

31:                                               ; preds = %30
  br i1 true, label %32, label %34

32:                                               ; preds = %31
  %33 = call zeroext i1 @errstart_cold(i32 noundef 21, ptr noundef null) #13
  br i1 %33, label %36, label %47

34:                                               ; preds = %31
  %35 = call zeroext i1 @errstart(i32 noundef 21, ptr noundef null)
  br i1 %35, label %36, label %47

36:                                               ; preds = %34, %32
  %37 = call i32 @errcode(i32 noundef 1088)
  %38 = call i32 @GetUserId()
  %39 = call ptr @GetUserNameFromId(i32 noundef %38, i1 noundef zeroext true)
  %40 = load ptr, ptr %3, align 8
  %41 = getelementptr inbounds nuw %struct.RelationData, ptr %40, i32 0, i32 13
  %42 = load ptr, ptr %41, align 8
  %43 = getelementptr inbounds nuw %struct.FormData_pg_class, ptr %42, i32 0, i32 1
  %44 = getelementptr inbounds nuw %struct.nameData, ptr %43, i32 0, i32 0
  %45 = getelementptr inbounds [64 x i8], ptr %44, i64 0, i64 0
  %46 = call i32 (ptr, ...) @errmsg(ptr noundef @.str.54, ptr noundef %39, ptr noundef %45)
  call void @errfinish(ptr noundef @.str.3, i32 noundef 2385, ptr noundef @__func__.TargetPrivilegesCheck)
  br label %47

47:                                               ; preds = %36, %34, %32
  unreachable

48:                                               ; No predecessors!
  br label %49

49:                                               ; preds = %48
  br label %50

50:                                               ; preds = %49, %26
  call void @llvm.lifetime.end.p0(i64 4, ptr %6) #12
  call void @llvm.lifetime.end.p0(i64 4, ptr %5) #12
  ret void
}