; Function Attrs: nounwind uwtable
define internal fastcc void @TargetPrivilegesCheck(ptr noundef readonly captures(none) %0, i64 noundef range(i64 1, 17) %1) unnamed_addr #0 {
  %3 = getelementptr inbounds nuw i8, ptr %0, i64 72
  %4 = load i32, ptr %3, align 8
  %5 = tail call i32 @GetUserId() #17
  %6 = tail call i32 @pg_class_aclcheck(i32 noundef %4, i32 noundef %5, i64 noundef %1) #17
  %.not = icmp eq i32 %6, 0
  br i1 %.not, label %14, label %7

7:                                                ; preds = %2
  %8 = getelementptr inbounds nuw i8, ptr %0, i64 56
  %9 = load ptr, ptr %8, align 8
  %10 = getelementptr inbounds nuw i8, ptr %9, i64 115
  %11 = load i8, ptr %10, align 1
  %12 = tail call i32 @get_relkind_objtype(i8 noundef signext %11) #17
  %13 = tail call ptr @get_rel_name(i32 noundef %4) #17
  tail call void @aclcheck_error(i32 noundef %6, i32 noundef %12, ptr noundef %13) #17
  br label %14

14:                                               ; preds = %7, %2
  %15 = tail call i32 @check_enable_rls(i32 noundef %4, i32 noundef 0, i1 noundef zeroext false) #17
  %16 = icmp eq i32 %15, 2
  br i1 %16, label %17, label %26

17:                                               ; preds = %14
  %18 = tail call zeroext i1 @errstart_cold(i32 noundef 21, ptr noundef null) #18
  tail call void @llvm.assume(i1 %18)
  %19 = tail call i32 @errcode(i32 noundef 1088) #17
  %20 = tail call i32 @GetUserId() #17
  %21 = tail call ptr @GetUserNameFromId(i32 noundef %20, i1 noundef zeroext true) #17
  %22 = getelementptr inbounds nuw i8, ptr %0, i64 56
  %23 = load ptr, ptr %22, align 8
  %24 = getelementptr inbounds nuw i8, ptr %23, i64 4
  %25 = tail call i32 (ptr, ...) @errmsg(ptr noundef nonnull @.str.54, ptr noundef %21, ptr noundef nonnull %24) #17
  tail call void @errfinish(ptr noundef nonnull @.str.3, i32 noundef 2385, ptr noundef nonnull @__func__.TargetPrivilegesCheck) #17
  unreachable

26:                                               ; preds = %14
  ret void
}